target datalayout = "e-m:e-p270:32:32-p271:32:32-p272:64:64-i64:64-i128:128-f80:128-n8:16:32:64-S128"
target triple = "x86_64-pc-linux-gnu"

@.str.18 = private unnamed_addr constant [30 x i8] c"../openssl/test/threadstest.c\00", align 1
@global_lock = internal global ptr null, align 8
@multi_success = internal global i32 0, align 4
@multi_libctx = internal global ptr null, align 8
@multi_load_provider = internal global ptr @.str.119, align 8
@.str.121 = private unnamed_addr constant [61 x i8] c"prov = OSSL_PROVIDER_load(multi_libctx, multi_load_provider)\00", align 1
@.str.122 = private unnamed_addr constant [27 x i8] c"OSSL_PROVIDER_unload(prov)\00", align 1

; Function Attrs: nounwind uwtable
define internal void @multi_set_success(i32 noundef %0) #0 {
  %2 = alloca i32, align 4
  store i32 %0, ptr %2, align 4, !tbaa !4
  %3 = load ptr, ptr @global_lock, align 8, !tbaa !13
  %4 = call i32 @CRYPTO_THREAD_write_lock(ptr noundef %3)
  %5 = icmp eq i32 %4, 0
  br i1 %5, label %6, label %8

6:                                                ; preds = %1
  %7 = load i32, ptr %2, align 4, !tbaa !4
  store i32 %7, ptr @multi_success, align 4, !tbaa !4
  br label %12

8:                                                ; preds = %1
  %9 = load i32, ptr %2, align 4, !tbaa !4
  store i32 %9, ptr @multi_success, align 4, !tbaa !4
  %10 = load ptr, ptr @global_lock, align 8, !tbaa !13
  %11 = call i32 @CRYPTO_THREAD_unlock(ptr noundef %10)
  br label %12

12:                                               ; preds = %8, %6
  ret void
}

; Function Attrs: nounwind uwtable
define internal void @test_multi_load_worker() #0 {
  %1 = alloca ptr, align 8
  call void @llvm.lifetime.start.p0(i64 8, ptr %1) #10
  %2 = load ptr, ptr @multi_libctx, align 8, !tbaa !20
  %3 = load ptr, ptr @multi_load_provider, align 8, !tbaa !8
  %4 = call ptr @OSSL_PROVIDER_load(ptr noundef %2, ptr noundef %3)
  store ptr %4, ptr %1, align 8, !tbaa !16
  %5 = call i32 @test_ptr(ptr noundef @.str.18, i32 noundef 1096, ptr noundef @.str.121, ptr noundef %4)
  %6 = icmp ne i32 %5, 0
  br i1 %6, label %7, label %14

7:                                                ; preds = %0
  %8 = load ptr, ptr %1, align 8, !tbaa !16
  %9 = call i32 @OSSL_PROVIDER_unload(ptr noundef %8)
  %10 = icmp ne i32 %9, 0
  %11 = zext i1 %10 to i32
  %12 = call i32 @test_true(ptr noundef @.str.18, i32 noundef 1097, ptr noundef @.str.122, i32 noundef %11)
  %13 = icmp ne i32 %12, 0
  br i1 %13, label %15, label %14

14:                                               ; preds = %7, %0
  call void @multi_set_success(i32 noundef 0)
  br label %15

15:                                               ; preds = %14, %7
  call void @llvm.lifetime.end.p0(i64 8, ptr %1) #10
  ret void
}