; Function Attrs: nounwind uwtable
define internal void @test_multi_load_worker() #1 {
  %1 = load ptr, ptr @multi_libctx, align 8, !tbaa !16
  %2 = load ptr, ptr @multi_load_provider, align 8, !tbaa !6
  %3 = tail call ptr @OSSL_PROVIDER_load(ptr noundef %1, ptr noundef %2) #11
  %4 = tail call i32 @test_ptr(ptr noundef nonnull @.str.18, i32 noundef 1096, ptr noundef nonnull @.str.121, ptr noundef %3) #11
  %.not = icmp eq i32 %4, 0
  br i1 %.not, label %10, label %5

5:                                                ; preds = %0
  %6 = tail call i32 @OSSL_PROVIDER_unload(ptr noundef %3) #11
  %7 = icmp ne i32 %6, 0
  %8 = zext i1 %7 to i32
  %9 = tail call i32 @test_true(ptr noundef nonnull @.str.18, i32 noundef 1097, ptr noundef nonnull @.str.122, i32 noundef %8) #11
  %.not1 = icmp eq i32 %9, 0
  br i1 %.not1, label %10, label %multi_set_success.exit

10:                                               ; preds = %5, %0
  %11 = load ptr, ptr @global_lock, align 8, !tbaa !11
  %12 = tail call i32 @CRYPTO_THREAD_write_lock(ptr noundef %11) #11
  %13 = icmp eq i32 %12, 0
  store i1 false, ptr @multi_success, align 4
  br i1 %13, label %multi_set_success.exit, label %14

14:                                               ; preds = %10
  %15 = load ptr, ptr @global_lock, align 8, !tbaa !11
  %16 = tail call i32 @CRYPTO_THREAD_unlock(ptr noundef %15) #11
  br label %multi_set_success.exit

multi_set_success.exit:                           ; preds = %14, %10, %5
  ret void
}